; Function Attrs: mustprogress nounwind uwtable
define dso_local void @_ZN4llvm10TimerGroupC2ENS_9StringRefES1_(ptr noundef nonnull align 8 dereferenceable(112) %0, ptr %1, i64 %2, ptr %3, i64 %4) unnamed_addr #0 align 2 {
  %6 = alloca %"class.std::allocator", align 1
  %7 = alloca %"class.std::allocator", align 1
  %8 = getelementptr inbounds i8, ptr %1, i64 %2
  call void @_ZNSaIcEC1Ev(ptr noundef nonnull align 1 dereferenceable(1) %6) #19
  %9 = call noundef ptr @_ZNSt7__cxx1112basic_stringIcSt11char_traitsIcESaIcEE13_M_local_dataEv(ptr noundef nonnull align 8 dereferenceable(32) %0) #19
  call void @_ZNSt7__cxx1112basic_stringIcSt11char_traitsIcESaIcEE12_Alloc_hiderC1EPcRKS3_(ptr noundef nonnull align 8 dereferenceable(8) %0, ptr noundef %9, ptr noundef nonnull align 1 dereferenceable(1) %6) #19
  %10 = getelementptr inbounds nuw i8, ptr %0, i64 8
  store i64 0, ptr %10, align 8
  call void @_ZNSt7__cxx1112basic_stringIcSt11char_traitsIcESaIcEE12_M_constructIPKcEEvT_S8_St20forward_iterator_tag(ptr noundef nonnull align 8 dereferenceable(32) %0, ptr noundef %1, ptr noundef %8)
  call void @_ZNSaIcED1Ev(ptr noundef nonnull align 1 dereferenceable(1) %6) #19
  %11 = getelementptr inbounds nuw i8, ptr %0, i64 32
  %12 = getelementptr inbounds i8, ptr %3, i64 %4
  call void @_ZNSaIcEC1Ev(ptr noundef nonnull align 1 dereferenceable(1) %7) #19
  %13 = call noundef ptr @_ZNSt7__cxx1112basic_stringIcSt11char_traitsIcESaIcEE13_M_local_dataEv(ptr noundef nonnull align 8 dereferenceable(32) %11) #19
  call void @_ZNSt7__cxx1112basic_stringIcSt11char_traitsIcESaIcEE12_Alloc_hiderC1EPcRKS3_(ptr noundef nonnull align 8 dereferenceable(8) %11, ptr noundef %13, ptr noundef nonnull align 1 dereferenceable(1) %7) #19
  %14 = getelementptr inbounds i8, ptr %0, i64 40
  store i64 0, ptr %14, align 8
  call void @_ZNSt7__cxx1112basic_stringIcSt11char_traitsIcESaIcEE12_M_constructIPKcEEvT_S8_St20forward_iterator_tag(ptr noundef nonnull align 8 dereferenceable(32) %11, ptr noundef %3, ptr noundef %12)
  call void @_ZNSaIcED1Ev(ptr noundef nonnull align 1 dereferenceable(1) %7) #19
  %15 = getelementptr inbounds nuw i8, ptr %0, i64 64
  call void @llvm.memset.p0.i64(ptr noundef nonnull align 8 dereferenceable(32) %15, i8 0, i64 32, i1 false)
  %16 = load atomic i64, ptr @_ZL9TimerLock acquire, align 8
  %.not.i = icmp eq i64 %16, 0
  br i1 %.not.i, label %17, label %_ZN4llvm13ManagedStaticINS_3sys10SmartMutexILb1EEENS_14object_creatorIS3_EENS_14object_deleterIS3_EEEdeEv.exit

17:                                               ; preds = %5
  call void @_ZNK4llvm17ManagedStaticBase21RegisterManagedStaticEPFPvvEPFvS1_E(ptr noundef nonnull align 8 dereferenceable(24) @_ZL9TimerLock, ptr noundef nonnull @_ZN4llvm14object_creatorINS_3sys10SmartMutexILb1EEEE4callEv, ptr noundef nonnull @_ZN4llvm14object_deleterINS_3sys10SmartMutexILb1EEEE4callEPv) #19
  br label %_ZN4llvm13ManagedStaticINS_3sys10SmartMutexILb1EEENS_14object_creatorIS3_EENS_14object_deleterIS3_EEEdeEv.exit

_ZN4llvm13ManagedStaticINS_3sys10SmartMutexILb1EEENS_14object_creatorIS3_EENS_14object_deleterIS3_EEEdeEv.exit: ; preds = %5, %17
  %18 = load atomic i64, ptr @_ZL9TimerLock monotonic, align 8
  %.0.i2.i = inttoptr i64 %18 to ptr
  %19 = call noundef i32 @pthread_mutex_lock(ptr noundef nonnull %.0.i2.i) #19
  %.not.i.i.i = icmp eq i32 %19, 0
  br i1 %.not.i.i.i, label %_ZNSt10lock_guardIN4llvm3sys10SmartMutexILb1EEEEC2ERS3_.exit, label %20

20:                                               ; preds = %_ZN4llvm13ManagedStaticINS_3sys10SmartMutexILb1EEENS_14object_creatorIS3_EENS_14object_deleterIS3_EEEdeEv.exit
  call void @_ZSt20__throw_system_errori(i32 noundef %19) #22
  unreachable

_ZNSt10lock_guardIN4llvm3sys10SmartMutexILb1EEEEC2ERS3_.exit: ; preds = %_ZN4llvm13ManagedStaticINS_3sys10SmartMutexILb1EEENS_14object_creatorIS3_EENS_14object_deleterIS3_EEEdeEv.exit
  %21 = load ptr, ptr @_ZL14TimerGroupList, align 8
  %.not = icmp eq ptr %21, null
  br i1 %.not, label %25, label %22

22:                                               ; preds = %_ZNSt10lock_guardIN4llvm3sys10SmartMutexILb1EEEEC2ERS3_.exit
  %23 = getelementptr inbounds nuw i8, ptr %0, i64 104
  %24 = getelementptr inbounds nuw i8, ptr %21, i64 96
  store ptr %23, ptr %24, align 8
  br label %25

25:                                               ; preds = %22, %_ZNSt10lock_guardIN4llvm3sys10SmartMutexILb1EEEEC2ERS3_.exit
  %26 = getelementptr inbounds nuw i8, ptr %0, i64 104
  store ptr %21, ptr %26, align 8
  %27 = getelementptr inbounds nuw i8, ptr %0, i64 96
  store ptr @_ZL14TimerGroupList, ptr %27, align 8
  store ptr %0, ptr @_ZL14TimerGroupList, align 8
  %28 = call noundef i32 @pthread_mutex_unlock(ptr noundef nonnull %.0.i2.i) #19
  ret void
}